
main.elf:     file format elf32-avr

Sections:
Idx Name          Size      VMA       LMA       File off  Algn
  0 .text         00000146  00000000  00000000  00000074  2**1
                  CONTENTS, ALLOC, LOAD, READONLY, CODE
  1 .bss          00000002  00800100  00800100  000001ba  2**0
                  ALLOC
  2 .stab         000006cc  00000000  00000000  000001bc  2**2
                  CONTENTS, READONLY, DEBUGGING
  3 .stabstr      00000054  00000000  00000000  00000888  2**0
                  CONTENTS, READONLY, DEBUGGING
  4 .debug_aranges 00000020  00000000  00000000  000008dc  2**0
                  CONTENTS, READONLY, DEBUGGING
  5 .debug_pubnames 00000039  00000000  00000000  000008fc  2**0
                  CONTENTS, READONLY, DEBUGGING
  6 .debug_info   000001f5  00000000  00000000  00000935  2**0
                  CONTENTS, READONLY, DEBUGGING
  7 .debug_abbrev 00000124  00000000  00000000  00000b2a  2**0
                  CONTENTS, READONLY, DEBUGGING
  8 .debug_line   000001ae  00000000  00000000  00000c4e  2**0
                  CONTENTS, READONLY, DEBUGGING
  9 .debug_frame  00000030  00000000  00000000  00000dfc  2**2
                  CONTENTS, READONLY, DEBUGGING
 10 .debug_str    000000fd  00000000  00000000  00000e2c  2**0
                  CONTENTS, READONLY, DEBUGGING
 11 .debug_loc    0000002f  00000000  00000000  00000f29  2**0
                  CONTENTS, READONLY, DEBUGGING
 12 .debug_pubtypes 00000038  00000000  00000000  00000f58  2**0
                  CONTENTS, READONLY, DEBUGGING

Disassembly of section .text:

00000000 <__vectors>:
   0:	0c 94 34 00 	jmp	0x68	; 0x68 <__ctors_end>
   4:	0c 94 46 00 	jmp	0x8c	; 0x8c <__bad_interrupt>
   8:	0c 94 46 00 	jmp	0x8c	; 0x8c <__bad_interrupt>
   c:	0c 94 46 00 	jmp	0x8c	; 0x8c <__bad_interrupt>
  10:	0c 94 46 00 	jmp	0x8c	; 0x8c <__bad_interrupt>
  14:	0c 94 46 00 	jmp	0x8c	; 0x8c <__bad_interrupt>
  18:	0c 94 46 00 	jmp	0x8c	; 0x8c <__bad_interrupt>
  1c:	0c 94 46 00 	jmp	0x8c	; 0x8c <__bad_interrupt>
  20:	0c 94 46 00 	jmp	0x8c	; 0x8c <__bad_interrupt>
  24:	0c 94 46 00 	jmp	0x8c	; 0x8c <__bad_interrupt>
  28:	0c 94 46 00 	jmp	0x8c	; 0x8c <__bad_interrupt>
  2c:	0c 94 46 00 	jmp	0x8c	; 0x8c <__bad_interrupt>
  30:	0c 94 46 00 	jmp	0x8c	; 0x8c <__bad_interrupt>
  34:	0c 94 46 00 	jmp	0x8c	; 0x8c <__bad_interrupt>
  38:	0c 94 7f 00 	jmp	0xfe	; 0xfe <__vector_14>
  3c:	0c 94 46 00 	jmp	0x8c	; 0x8c <__bad_interrupt>
  40:	0c 94 46 00 	jmp	0x8c	; 0x8c <__bad_interrupt>
  44:	0c 94 46 00 	jmp	0x8c	; 0x8c <__bad_interrupt>
  48:	0c 94 46 00 	jmp	0x8c	; 0x8c <__bad_interrupt>
  4c:	0c 94 46 00 	jmp	0x8c	; 0x8c <__bad_interrupt>
  50:	0c 94 46 00 	jmp	0x8c	; 0x8c <__bad_interrupt>
  54:	0c 94 46 00 	jmp	0x8c	; 0x8c <__bad_interrupt>
  58:	0c 94 46 00 	jmp	0x8c	; 0x8c <__bad_interrupt>
  5c:	0c 94 46 00 	jmp	0x8c	; 0x8c <__bad_interrupt>
  60:	0c 94 46 00 	jmp	0x8c	; 0x8c <__bad_interrupt>
  64:	0c 94 46 00 	jmp	0x8c	; 0x8c <__bad_interrupt>

00000068 <__ctors_end>:
  68:	11 24       	eor	r1, r1
  6a:	1f be       	out	0x3f, r1	; 63
  6c:	cf ef       	ldi	r28, 0xFF	; 255
  6e:	d8 e0       	ldi	r29, 0x08	; 8
  70:	de bf       	out	0x3e, r29	; 62
  72:	cd bf       	out	0x3d, r28	; 61

00000074 <__do_clear_bss>:
  74:	11 e0       	ldi	r17, 0x01	; 1
  76:	a0 e0       	ldi	r26, 0x00	; 0
  78:	b1 e0       	ldi	r27, 0x01	; 1
  7a:	01 c0       	rjmp	.+2      	; 0x7e <.do_clear_bss_start>

0000007c <.do_clear_bss_loop>:
  7c:	1d 92       	st	X+, r1

0000007e <.do_clear_bss_start>:
  7e:	a2 30       	cpi	r26, 0x02	; 2
  80:	b1 07       	cpc	r27, r17
  82:	e1 f7       	brne	.-8      	; 0x7c <.do_clear_bss_loop>
  84:	0e 94 48 00 	call	0x90	; 0x90 <main>
  88:	0c 94 a1 00 	jmp	0x142	; 0x142 <_exit>

0000008c <__bad_interrupt>:
  8c:	0c 94 00 00 	jmp	0	; 0x0 <__vectors>

00000090 <main>:
#include <util/delay.h>

int extraTime;
int main(void) {

  DDRB =   (1 << PORTB0); //sets pin 8 to be an output
  90:	81 e0       	ldi	r24, 0x01	; 1
  92:	84 b9       	out	0x04, r24	; 4

  //CTC Mode
  TCCR0A = (1 << WGM01); //WGM01 sets this for CTC mode
  94:	82 e0       	ldi	r24, 0x02	; 2
  96:	84 bd       	out	0x24, r24	; 36

  //OCR0A  Output Compare Register A
  OCR0A = 195;  //number of ticks we want to go through before resetting, this is the compare, when = it does stuff + resets
  98:	93 ec       	ldi	r25, 0xC3	; 195
  9a:	97 bd       	out	0x27, r25	; 39

//TCCR0B = (1 << CS01) | (1 << CS00); //page 110 of the documentaion  this sets the prescaler to 1024

  //TIMSK0 register controls the interrupts-- when this happens I want this interrupt to occu
  //OCIE0A this bit want interrupt setup so that when compare 'A' is equal it will set up an interrupt
  TIMSK0 = (1 << OCIE0A);
  9c:	80 93 6e 00 	sts	0x006E, r24

  // clock select bit prescaler

  sei(); // sets the i-bit
  a0:	78 94       	sei
  while(1) {
  //OCR0A  Output Compare Register A
  //
  TCCR0B =  (1 << CS02) | (0 << CS01) | (1 << CS00); //page 110 of the documentaion  this sets the prescaler to 1024
  a2:	35 e0       	ldi	r19, 0x05	; 5
    OCR0A = i;  //number of ticks we want to go through before resetting, this is the compare, when = it does stuff + resets
    _delay_ms(100);
  }
  */

  TCCR0B =  (1 << CS02) | (0 << CS01) | (0 << CS00); //page 110 of the documentaion  this sets the prescaler to 1024
  a4:	24 e0       	ldi	r18, 0x04	; 4
    OCR0A = i;  //number of ticks we want to go through before resetting, this is the compare, when = it does stuff + resets
    _delay_ms(100);
  }
  */

  TCCR0B =  (0 << CS02) | (1 << CS01) | (1 << CS00); //page 110 of the documentaion  this sets the prescaler to 1024
  a6:	93 e0       	ldi	r25, 0x03	; 3

  sei(); // sets the i-bit
  while(1) {
  //OCR0A  Output Compare Register A
  //
  TCCR0B =  (1 << CS02) | (0 << CS01) | (1 << CS00); //page 110 of the documentaion  this sets the prescaler to 1024
  a8:	35 bd       	out	0x25, r19	; 37
  aa:	8f ef       	ldi	r24, 0xFF	; 255
  int i;
  for (i = 255; i > 0 ; i--) {
    OCR0A = i;  //number of ticks we want to go through before resetting, this is the compare, when = it does stuff + resets
  ac:	87 bd       	out	0x27, r24	; 39
	#else
		//round up by default
		__ticks_dc = (uint32_t)(ceil(fabs(__tmp)));
	#endif

	__builtin_avr_delay_cycles(__ticks_dc);
  ae:	4f ef       	ldi	r20, 0xFF	; 255
  b0:	59 e6       	ldi	r21, 0x69	; 105
  b2:	68 e1       	ldi	r22, 0x18	; 24
  b4:	41 50       	subi	r20, 0x01	; 1
  b6:	50 40       	sbci	r21, 0x00	; 0
  b8:	60 40       	sbci	r22, 0x00	; 0
  ba:	e1 f7       	brne	.-8      	; 0xb4 <main+0x24>
  bc:	00 c0       	rjmp	.+0      	; 0xbe <main+0x2e>
  be:	00 00       	nop
  c0:	81 50       	subi	r24, 0x01	; 1
  while(1) {
  //OCR0A  Output Compare Register A
  //
  TCCR0B =  (1 << CS02) | (0 << CS01) | (1 << CS00); //page 110 of the documentaion  this sets the prescaler to 1024
  int i;
  for (i = 255; i > 0 ; i--) {
  c2:	a1 f7       	brne	.-24     	; 0xac <main+0x1c>
    OCR0A = i;  //number of ticks we want to go through before resetting, this is the compare, when = it does stuff + resets
    _delay_ms(100);
  }
  */

  TCCR0B =  (1 << CS02) | (0 << CS01) | (0 << CS00); //page 110 of the documentaion  this sets the prescaler to 1024
  c4:	25 bd       	out	0x25, r18	; 37
  c6:	8f ef       	ldi	r24, 0xFF	; 255
//----------------------------------------------------------
//                        ROUND 2
//----------------------------------------------------------

  for (i = 255; i > 0 ; i--) {
    OCR0A = i;  //number of ticks we want to go through before resetting, this is the compare, when = it does stuff + resets
  c8:	87 bd       	out	0x27, r24	; 39
  ca:	4f ef       	ldi	r20, 0xFF	; 255
  cc:	59 e6       	ldi	r21, 0x69	; 105
  ce:	68 e1       	ldi	r22, 0x18	; 24
  d0:	41 50       	subi	r20, 0x01	; 1
  d2:	50 40       	sbci	r21, 0x00	; 0
  d4:	60 40       	sbci	r22, 0x00	; 0
  d6:	e1 f7       	brne	.-8      	; 0xd0 <main+0x40>
  d8:	00 c0       	rjmp	.+0      	; 0xda <main+0x4a>
  da:	00 00       	nop
  dc:	81 50       	subi	r24, 0x01	; 1

//----------------------------------------------------------
//                        ROUND 2
//----------------------------------------------------------

  for (i = 255; i > 0 ; i--) {
  de:	a1 f7       	brne	.-24     	; 0xc8 <main+0x38>
    OCR0A = i;  //number of ticks we want to go through before resetting, this is the compare, when = it does stuff + resets
    _delay_ms(100);
  }
  */

  TCCR0B =  (0 << CS02) | (1 << CS01) | (1 << CS00); //page 110 of the documentaion  this sets the prescaler to 1024
  e0:	95 bd       	out	0x25, r25	; 37
  e2:	8f ef       	ldi	r24, 0xFF	; 255
  for (i = 255; i > 0 ; i--) {
    OCR0A = i;  //number of ticks we want to go through before resetting, this is the compare, when = it does stuff + resets
  e4:	87 bd       	out	0x27, r24	; 39
  e6:	4f ef       	ldi	r20, 0xFF	; 255
  e8:	59 e6       	ldi	r21, 0x69	; 105
  ea:	68 e1       	ldi	r22, 0x18	; 24
  ec:	41 50       	subi	r20, 0x01	; 1
  ee:	50 40       	sbci	r21, 0x00	; 0
  f0:	60 40       	sbci	r22, 0x00	; 0
  f2:	e1 f7       	brne	.-8      	; 0xec <main+0x5c>
  f4:	00 c0       	rjmp	.+0      	; 0xf6 <main+0x66>
  f6:	00 00       	nop
  f8:	81 50       	subi	r24, 0x01	; 1
    _delay_ms(100);
  }
  */

  TCCR0B =  (0 << CS02) | (1 << CS01) | (1 << CS00); //page 110 of the documentaion  this sets the prescaler to 1024
  for (i = 255; i > 0 ; i--) {
  fa:	a1 f7       	brne	.-24     	; 0xe4 <main+0x54>
  fc:	d5 cf       	rjmp	.-86     	; 0xa8 <main+0x18>

000000fe <__vector_14>:

  }
}


ISR(TIMER0_COMPA_vect) {
  fe:	1f 92       	push	r1
 100:	0f 92       	push	r0
 102:	0f b6       	in	r0, 0x3f	; 63
 104:	0f 92       	push	r0
 106:	11 24       	eor	r1, r1
 108:	8f 93       	push	r24
 10a:	9f 93       	push	r25
  extraTime++;
 10c:	80 91 00 01 	lds	r24, 0x0100
 110:	90 91 01 01 	lds	r25, 0x0101
 114:	01 96       	adiw	r24, 0x01	; 1
 116:	90 93 01 01 	sts	0x0101, r25
 11a:	80 93 00 01 	sts	0x0100, r24
  if(extraTime > 100) {
 11e:	85 36       	cpi	r24, 0x65	; 101
 120:	91 05       	cpc	r25, r1
 122:	44 f0       	brlt	.+16     	; 0x134 <__vector_14+0x36>
    PORTB ^=  (1 << PORTB0); //toggles an led -- this is really useful!!
 124:	85 b1       	in	r24, 0x05	; 5
 126:	91 e0       	ldi	r25, 0x01	; 1
 128:	89 27       	eor	r24, r25
 12a:	85 b9       	out	0x05, r24	; 5
    extraTime = 0;
 12c:	10 92 01 01 	sts	0x0101, r1
 130:	10 92 00 01 	sts	0x0100, r1
  }
}
 134:	9f 91       	pop	r25
 136:	8f 91       	pop	r24
 138:	0f 90       	pop	r0
 13a:	0f be       	out	0x3f, r0	; 63
 13c:	0f 90       	pop	r0
 13e:	1f 90       	pop	r1
 140:	18 95       	reti

00000142 <_exit>:
 142:	f8 94       	cli

00000144 <__stop_program>:
 144:	ff cf       	rjmp	.-2      	; 0x144 <__stop_program>
